; Function Attrs: mustprogress nofree norecurse nosync nounwind willreturn memory(argmem: readwrite) uwtable
define noundef nonnull align 8 dereferenceable(64) ptr @_ZNK6icu_7513MessageFormat11DummyFormat6formatERKNS_11FormattableERNS_13UnicodeStringERNS_13FieldPositionER10UErrorCode(ptr nocapture nonnull readnone align 8 %this, ptr nocapture nonnull readnone align 8 %0, ptr noundef nonnull readnone returned align 8 dereferenceable(64) %appendTo, ptr nocapture nonnull readnone align 8 %1, ptr nocapture noundef nonnull align 4 dereferenceable(4) %status) unnamed_addr #14 align 2 {
entry:
  %2 = load i32, ptr %status, align 4
  %cmp.i = icmp sgt i32 %2, 0
  br i1 %cmp.i, label %if.end, label %if.then

if.then:                                          ; preds = %entry
  store i32 16, ptr %status, align 4
  br label %if.end

if.end:                                           ; preds = %if.then, %entry
  ret ptr %appendTo
}